target datalayout = "e-m:e-p270:32:32-p271:32:32-p272:64:64-i64:64-i128:128-f80:128-n8:16:32:64-S128"
target triple = "x86_64-pc-linux-gnu"

%struct.H5D_chk_idx_info_t = type { ptr, ptr, ptr, ptr }
%struct.H5O_storage_chunk_t = type { i32, i64, ptr, %union.anon }
%union.anon = type { %struct.H5O_storage_chunk_btree_t }
%struct.H5O_storage_chunk_btree_t = type { i64, ptr }
%struct.H5D_bt2_ctx_ud_t = type { ptr, i32, i32, ptr }
%struct.H5O_layout_chunk_t = type { i32, i8, i32, [33 x i32], i32, i32, i64, i64, [33 x i64], [33 x i64], [33 x i64], [33 x i64], %union.anon.0 }
%union.anon.0 = type { %struct.H5O_layout_chunk_earray_t }
%struct.H5O_layout_chunk_earray_t = type { %struct.anon.1, i32, [33 x i32], [33 x i64], [33 x i64] }
%struct.anon.1 = type { i8, i8, i8, i8, i8 }

@.str.2 = private unnamed_addr constant [103 x i8] c"generated/home/dtcxzyw/WorkSpace/Projects/compilers/llvm-opt-benchmark/bench/hdf5/hdf5/src/H5Dbtree2.c\00", align 1
@H5E_DATASET_g = external global i64, align 8
@__func__.H5D__bt2_idx_delete = private unnamed_addr constant [20 x i8] c"H5D__bt2_idx_delete\00", align 1
@H5E_CANTDELETE_g = external global i64, align 8
@.str.37 = private unnamed_addr constant [23 x i8] c"can't delete v2 B-tree\00", align 1

; Function Attrs: nounwind uwtable
define internal i32 @H5D__bt2_idx_delete(ptr noundef %0) #0 {
  %2 = alloca ptr, align 8
  %3 = alloca ptr, align 8
  %4 = alloca %struct.H5D_bt2_ctx_ud_t, align 8
  %5 = alloca i32, align 4
  %6 = alloca i8, align 1
  store ptr %0, ptr %2, align 8
  store i32 0, ptr %5, align 4
  store i8 0, ptr %6, align 1
  %7 = load ptr, ptr %2, align 8
  %8 = getelementptr inbounds %struct.H5D_chk_idx_info_t, ptr %7, i32 0, i32 3
  %9 = load ptr, ptr %8, align 8
  %10 = getelementptr inbounds %struct.H5O_storage_chunk_t, ptr %9, i32 0, i32 1
  %11 = load i64, ptr %10, align 8
  %12 = icmp ne i64 %11, -1
  br i1 %12, label %13, label %80

13:                                               ; preds = %1
  %14 = load ptr, ptr %2, align 8
  %15 = getelementptr inbounds %struct.H5D_chk_idx_info_t, ptr %14, i32 0, i32 0
  %16 = load ptr, ptr %15, align 8
  %17 = getelementptr inbounds %struct.H5D_bt2_ctx_ud_t, ptr %4, i32 0, i32 0
  store ptr %16, ptr %17, align 8
  %18 = load ptr, ptr %2, align 8
  %19 = getelementptr inbounds %struct.H5D_chk_idx_info_t, ptr %18, i32 0, i32 2
  %20 = load ptr, ptr %19, align 8
  %21 = getelementptr inbounds %struct.H5O_layout_chunk_t, ptr %20, i32 0, i32 2
  %22 = load i32, ptr %21, align 8
  %23 = sub i32 %22, 1
  %24 = getelementptr inbounds %struct.H5D_bt2_ctx_ud_t, ptr %4, i32 0, i32 2
  store i32 %23, ptr %24, align 4
  %25 = load ptr, ptr %2, align 8
  %26 = getelementptr inbounds %struct.H5D_chk_idx_info_t, ptr %25, i32 0, i32 2
  %27 = load ptr, ptr %26, align 8
  %28 = getelementptr inbounds %struct.H5O_layout_chunk_t, ptr %27, i32 0, i32 5
  %29 = load i32, ptr %28, align 4
  %30 = getelementptr inbounds %struct.H5D_bt2_ctx_ud_t, ptr %4, i32 0, i32 1
  store i32 %29, ptr %30, align 8
  %31 = load ptr, ptr %2, align 8
  %32 = getelementptr inbounds %struct.H5D_chk_idx_info_t, ptr %31, i32 0, i32 2
  %33 = load ptr, ptr %32, align 8
  %34 = getelementptr inbounds %struct.H5O_layout_chunk_t, ptr %33, i32 0, i32 3
  %35 = getelementptr inbounds [33 x i32], ptr %34, i64 0, i64 0
  %36 = getelementptr inbounds %struct.H5D_bt2_ctx_ud_t, ptr %4, i32 0, i32 3
  store ptr %35, ptr %36, align 8
  %37 = load ptr, ptr %2, align 8
  %38 = getelementptr inbounds %struct.H5D_chk_idx_info_t, ptr %37, i32 0, i32 0
  %39 = load ptr, ptr %38, align 8
  %40 = call i32 @H5F_get_intent(ptr noundef %39)
  %41 = and i32 %40, 32
  %42 = icmp ne i32 %41, 0
  br i1 %42, label %43, label %44

43:                                               ; preds = %13
  store ptr null, ptr %3, align 8
  br label %45

44:                                               ; preds = %13
  store ptr @H5D__bt2_remove_cb, ptr %3, align 8
  br label %45

45:                                               ; preds = %44, %43
  %46 = load ptr, ptr %2, align 8
  %47 = getelementptr inbounds %struct.H5D_chk_idx_info_t, ptr %46, i32 0, i32 0
  %48 = load ptr, ptr %47, align 8
  %49 = load ptr, ptr %2, align 8
  %50 = getelementptr inbounds %struct.H5D_chk_idx_info_t, ptr %49, i32 0, i32 3
  %51 = load ptr, ptr %50, align 8
  %52 = getelementptr inbounds %struct.H5O_storage_chunk_t, ptr %51, i32 0, i32 1
  %53 = load i64, ptr %52, align 8
  %54 = load ptr, ptr %3, align 8
  %55 = load ptr, ptr %2, align 8
  %56 = getelementptr inbounds %struct.H5D_chk_idx_info_t, ptr %55, i32 0, i32 0
  %57 = load ptr, ptr %56, align 8
  %58 = call i32 @H5B2_delete(ptr noundef %48, i64 noundef %53, ptr noundef %4, ptr noundef %54, ptr noundef %57)
  %59 = icmp slt i32 %58, 0
  br i1 %59, label %60, label %75

60:                                               ; preds = %45
  br label %61

61:                                               ; preds = %60
  br label %62

62:                                               ; preds = %61
  br label %63

63:                                               ; preds = %62
  %64 = load i64, ptr @H5E_DATASET_g, align 8
  %65 = load i64, ptr @H5E_CANTDELETE_g, align 8
  %66 = call i32 (ptr, ptr, i32, i64, i64, ptr, ...) @H5E_printf_stack(ptr noundef @.str.2, ptr noundef @__func__.H5D__bt2_idx_delete, i32 noundef 1337, i64 noundef %64, i64 noundef %65, ptr noundef @.str.37)
  br label %67

67:                                               ; preds = %63
  store i8 1, ptr %6, align 1
  %68 = load i8, ptr %6, align 1
  %69 = trunc i8 %68 to i1
  %70 = zext i1 %69 to i8
  store i8 %70, ptr %6, align 1
  br label %71

71:                                               ; preds = %67
  br label %72

72:                                               ; preds = %71
  store i32 -1, ptr %5, align 4
  br label %81

73:                                               ; No predecessors!
  br label %74

74:                                               ; preds = %73
  br label %75

75:                                               ; preds = %74, %45
  %76 = load ptr, ptr %2, align 8
  %77 = getelementptr inbounds %struct.H5D_chk_idx_info_t, ptr %76, i32 0, i32 3
  %78 = load ptr, ptr %77, align 8
  %79 = getelementptr inbounds %struct.H5O_storage_chunk_t, ptr %78, i32 0, i32 1
  store i64 -1, ptr %79, align 8
  br label %80

80:                                               ; preds = %75, %1
  br label %81

81:                                               ; preds = %80, %72
  %82 = load i32, ptr %5, align 4
  ret i32 %82
}