; Function Attrs: nounwind uwtable
define internal range(i32 -1, 1) i32 @H5D__bt2_idx_delete(ptr nocapture noundef readonly %0) #1 {
  %2 = alloca %struct.H5D_bt2_ctx_ud_t, align 8
  %3 = getelementptr inbounds i8, ptr %0, i64 24
  %4 = load ptr, ptr %3, align 8
  %5 = getelementptr inbounds i8, ptr %4, i64 8
  %6 = load i64, ptr %5, align 8
  %.not = icmp eq i64 %6, -1
  br i1 %.not, label %35, label %7

7:                                                ; preds = %1
  %8 = load ptr, ptr %0, align 8
  store ptr %8, ptr %2, align 8
  %9 = getelementptr inbounds i8, ptr %0, i64 16
  %10 = load ptr, ptr %9, align 8
  %11 = getelementptr inbounds i8, ptr %10, i64 8
  %12 = load i32, ptr %11, align 8
  %13 = add i32 %12, -1
  %14 = getelementptr inbounds i8, ptr %2, i64 12
  store i32 %13, ptr %14, align 4
  %15 = getelementptr inbounds i8, ptr %10, i64 148
  %16 = load i32, ptr %15, align 4
  %17 = getelementptr inbounds i8, ptr %2, i64 8
  store i32 %16, ptr %17, align 8
  %18 = getelementptr inbounds i8, ptr %10, i64 12
  %19 = getelementptr inbounds i8, ptr %2, i64 16
  store ptr %18, ptr %19, align 8
  %20 = tail call i32 @H5F_get_intent(ptr noundef %8) #14
  %21 = and i32 %20, 32
  %.not13 = icmp eq i32 %21, 0
  %H5D__bt2_remove_cb. = select i1 %.not13, ptr @H5D__bt2_remove_cb, ptr null
  %22 = load ptr, ptr %0, align 8
  %23 = load ptr, ptr %3, align 8
  %24 = getelementptr inbounds i8, ptr %23, i64 8
  %25 = load i64, ptr %24, align 8
  %26 = call i32 @H5B2_delete(ptr noundef %22, i64 noundef %25, ptr noundef nonnull %2, ptr noundef %H5D__bt2_remove_cb., ptr noundef %22) #14
  %27 = icmp slt i32 %26, 0
  br i1 %27, label %28, label %32

28:                                               ; preds = %7
  %29 = load i64, ptr @H5E_DATASET_g, align 8
  %30 = load i64, ptr @H5E_CANTDELETE_g, align 8
  %31 = call i32 (ptr, ptr, i32, i64, i64, ptr, ...) @H5E_printf_stack(ptr noundef nonnull @.str.2, ptr noundef nonnull @__func__.H5D__bt2_idx_delete, i32 noundef 1337, i64 noundef %29, i64 noundef %30, ptr noundef nonnull @.str.37) #14
  br label %35

32:                                               ; preds = %7
  %33 = load ptr, ptr %3, align 8
  %34 = getelementptr inbounds i8, ptr %33, i64 8
  store i64 -1, ptr %34, align 8
  br label %35

35:                                               ; preds = %1, %32, %28
  %.0 = phi i32 [ -1, %28 ], [ 0, %32 ], [ 0, %1 ]
  ret i32 %.0
}